; Function Attrs: mustprogress uwtable
define noundef i32 @_ZNK7testing8TestCase21successful_test_countEv(ptr noundef nonnull readonly align 8 captures(none) dereferenceable(248) %0) local_unnamed_addr #4 align 2 {
  %2 = getelementptr inbounds nuw i8, ptr %0, i64 48
  %3 = load ptr, ptr %2, align 8, !tbaa !234
  %4 = getelementptr inbounds nuw i8, ptr %0, i64 56
  %5 = load ptr, ptr %4, align 8, !tbaa !234
  %.not7.i = icmp eq ptr %3, %5
  br i1 %.not7.i, label %_ZN7testing8internal7CountIfISt6vectorIPNS_8TestInfoESaIS4_EEPFbPKS3_EEEiRKT_T0_.exit, label %.lr.ph.i

.lr.ph.i:                                         ; preds = %1, %_ZN7testing8TestCase10TestPassedEPKNS_8TestInfoE.exit
  %.09.i = phi i32 [ %spec.select.i, %_ZN7testing8TestCase10TestPassedEPKNS_8TestInfoE.exit ], [ 0, %1 ]
  %.sroa.04.08.i = phi ptr [ %25, %_ZN7testing8TestCase10TestPassedEPKNS_8TestInfoE.exit ], [ %3, %1 ]
  %6 = load ptr, ptr %.sroa.04.08.i, align 8, !tbaa !235
  %7 = getelementptr inbounds nuw i8, ptr %6, i64 128
  %8 = load i8, ptr %7, align 8, !tbaa !236, !range !68, !noundef !69
  %9 = trunc nuw i8 %8 to i1
  br i1 %9, label %10, label %_ZN7testing8TestCase10TestPassedEPKNS_8TestInfoE.exit

10:                                               ; preds = %.lr.ph.i
  %11 = getelementptr inbounds nuw i8, ptr %6, i64 200
  %12 = getelementptr inbounds nuw i8, ptr %6, i64 208
  %13 = load ptr, ptr %12, align 8, !tbaa !191
  %14 = load ptr, ptr %11, align 8, !tbaa !199
  %15 = ptrtoint ptr %13 to i64
  %16 = ptrtoint ptr %14 to i64
  %17 = sub i64 %15, %16
  %18 = sdiv exact i64 %17, 112
  %19 = trunc i64 %18 to i32
  %.not711.i.i.i = icmp sgt i32 %19, 0
  br i1 %.not711.i.i.i, label %.lr.ph.preheader.i.i.i, label %_ZN7testing8TestCase10TestPassedEPKNS_8TestInfoE.exit

.lr.ph.preheader.i.i.i:                           ; preds = %10
  %wide.trip.count.i.i.i = and i64 %18, 2147483647
  br label %.lr.ph.i.i.i

20:                                               ; preds = %_ZNK7testing10TestResult17GetTestPartResultEi.exit.i.i.i
  %indvars.iv.next.i.i.i = add nuw nsw i64 %indvars.iv.i.i.i, 1
  %exitcond17.not.i.i.i = icmp eq i64 %indvars.iv.next.i.i.i, %wide.trip.count.i.i.i
  br i1 %exitcond17.not.i.i.i, label %_ZN7testing8TestCase10TestPassedEPKNS_8TestInfoE.exit, label %.lr.ph.i.i.i, !llvm.loop !240

.lr.ph.i.i.i:                                     ; preds = %20, %.lr.ph.preheader.i.i.i
  %indvars.iv.i.i.i = phi i64 [ 0, %.lr.ph.preheader.i.i.i ], [ %indvars.iv.next.i.i.i, %20 ]
  %exitcond.not.i.i.i = icmp eq i64 %indvars.iv.i.i.i, %18
  br i1 %exitcond.not.i.i.i, label %21, label %_ZNK7testing10TestResult17GetTestPartResultEi.exit.i.i.i

21:                                               ; preds = %.lr.ph.i.i.i
  tail call void (ptr, ...) @_ZSt24__throw_out_of_range_fmtPKcz(ptr noundef nonnull @.str.490, i64 noundef %18, i64 noundef %18) #58
  unreachable

_ZNK7testing10TestResult17GetTestPartResultEi.exit.i.i.i: ; preds = %.lr.ph.i.i.i
  %22 = getelementptr inbounds nuw %"class.testing::TestPartResult", ptr %14, i64 %indvars.iv.i.i.i
  %23 = load i32, ptr %22, align 8, !tbaa !208
  %.not.not.i.i.i = icmp eq i32 %23, 0
  br i1 %.not.not.i.i.i, label %20, label %_ZN7testing8TestCase10TestPassedEPKNS_8TestInfoE.exit

_ZN7testing8TestCase10TestPassedEPKNS_8TestInfoE.exit: ; preds = %20, %_ZNK7testing10TestResult17GetTestPartResultEi.exit.i.i.i, %.lr.ph.i, %10
  %24 = phi i32 [ 0, %.lr.ph.i ], [ 1, %10 ], [ 1, %20 ], [ 0, %_ZNK7testing10TestResult17GetTestPartResultEi.exit.i.i.i ]
  %spec.select.i = add nuw nsw i32 %24, %.09.i
  %25 = getelementptr inbounds nuw i8, ptr %.sroa.04.08.i, i64 8
  %.not.i = icmp eq ptr %25, %5
  br i1 %.not.i, label %_ZN7testing8internal7CountIfISt6vectorIPNS_8TestInfoESaIS4_EEPFbPKS3_EEEiRKT_T0_.exit, label %.lr.ph.i, !llvm.loop !241

_ZN7testing8internal7CountIfISt6vectorIPNS_8TestInfoESaIS4_EEPFbPKS3_EEEiRKT_T0_.exit: ; preds = %_ZN7testing8TestCase10TestPassedEPKNS_8TestInfoE.exit, %1
  %.0.lcssa.i = phi i32 [ 0, %1 ], [ %spec.select.i, %_ZN7testing8TestCase10TestPassedEPKNS_8TestInfoE.exit ]
  ret i32 %.0.lcssa.i
}